target datalayout = "e-m:e-p270:32:32-p271:32:32-p272:64:64-i64:64-i128:128-f80:128-n8:16:32:64-S128"
target triple = "x86_64-pc-linux-gnu"

@_ZN2cv3dnn14dnn4_v2024122319DNN_DIAGNOSTICS_RUNE = hidden global i8 0, align 1

; Function Attrs: mustprogress uwtable
define void @_ZN2cv3dnn14dnn4_v2024122322enableModelDiagnosticsEb(i1 noundef zeroext %0) #4 {
  %2 = alloca i8, align 1
  %3 = zext i1 %0 to i8
  store i8 %3, ptr %2, align 1, !tbaa !3
  %4 = load i8, ptr %2, align 1, !tbaa !3, !range !7, !noundef !8
  %5 = trunc i8 %4 to i1
  %6 = zext i1 %5 to i8
  store i8 %6, ptr @_ZN2cv3dnn14dnn4_v2024122319DNN_DIAGNOSTICS_RUNE, align 1, !tbaa !3
  %7 = load i8, ptr @_ZN2cv3dnn14dnn4_v2024122319DNN_DIAGNOSTICS_RUNE, align 1, !tbaa !3, !range !7, !noundef !8
  %8 = trunc i8 %7 to i1
  br i1 %8, label %9, label %10

9:                                                ; preds = %1
  call void @_ZN2cv3dnn14dnn4_v202412236detail14NotImplemented8RegisterEv()
  br label %11

10:                                               ; preds = %1
  call void @_ZN2cv3dnn14dnn4_v202412236detail14NotImplemented10unRegisterEv()
  br label %11

11:                                               ; preds = %10, %9
  ret void
}