; Function Attrs: mustprogress uwtable
define void @_ZN2cv3dnn14dnn4_v2024122322enableModelDiagnosticsEb(i1 noundef zeroext %0) local_unnamed_addr #3 {
  %2 = zext i1 %0 to i8
  store i8 %2, ptr @_ZN2cv3dnn14dnn4_v2024122319DNN_DIAGNOSTICS_RUNE, align 1, !tbaa !3
  br i1 %0, label %3, label %4

3:                                                ; preds = %1
  tail call void @_ZN2cv3dnn14dnn4_v202412236detail14NotImplemented8RegisterEv()
  br label %5

4:                                                ; preds = %1
  tail call void @_ZN2cv3dnn14dnn4_v202412236detail14NotImplemented10unRegisterEv()
  br label %5

5:                                                ; preds = %4, %3
  ret void
}